; Function Attrs: mustprogress nofree nounwind willreturn memory(read, inaccessiblemem: none) uwtable
define internal noundef i32 @_ZNK7rocksdb12_GLOBAL__N_122BytewiseComparatorImpl7CompareERKNS_5SliceES4_(ptr nonnull readnone align 8 captures(none) %0, ptr noundef nonnull readonly align 8 captures(none) dereferenceable(16) %1, ptr noundef nonnull readonly align 8 captures(none) dereferenceable(16) %2) unnamed_addr #10 align 2 {
  %4 = getelementptr inbounds nuw i8, ptr %1, i64 8
  %5 = load i64, ptr %4, align 8, !tbaa !29
  %6 = getelementptr inbounds nuw i8, ptr %2, i64 8
  %7 = load i64, ptr %6, align 8, !tbaa !29
  %..i = tail call i64 @llvm.umin.i64(i64 %5, i64 %7)
  %8 = load ptr, ptr %1, align 8, !tbaa !32
  %9 = load ptr, ptr %2, align 8, !tbaa !32
  %10 = tail call i32 @memcmp(ptr noundef %8, ptr noundef %9, i64 noundef %..i) #31
  %.not.i = icmp eq i32 %10, 0
  %.mux.i = tail call i32 @llvm.ucmp.i32.i64(i64 %5, i64 %7)
  %.0.i = select i1 %.not.i, i32 %.mux.i, i32 %10
  ret i32 %.0.i
}